target datalayout = "e-m:e-p270:32:32-p271:32:32-p272:64:64-i64:64-i128:128-f80:128-n8:16:32:64-S128"
target triple = "x86_64-pc-linux-gnu"

%struct.If_Man_t_ = type { ptr, ptr, ptr, ptr, ptr, ptr, ptr, ptr, [5 x i32], i32, float, float, float, float, i32, float, i32, i32, [4 x ptr], ptr, i32, i32, i32, ptr, [3 x [32 x i32]], i32, i32, i32, ptr, ptr, ptr, ptr, ptr, ptr, ptr, i32, i32, i32, [16 x i32], i32, i32, i32, i32, ptr, ptr, ptr, ptr, ptr, i32, i32, [32 x i32], [32 x i32], i32, i32, i32, i32, ptr, [16 x ptr], [16 x ptr], [16 x ptr], [16 x ptr], [16 x ptr], [16 x ptr], [16 x ptr], ptr, ptr, ptr, ptr, [32 x i8], i32, i32, i32, [6 x i64], [2 x i32], [2 x i32], ptr, [15 x i32], ptr, ptr, ptr, [16 x i32], ptr, ptr, ptr, ptr, [2 x i32], [2 x i32], [2 x ptr], ptr }
%struct.Vec_Ptr_t_ = type { i32, i32, ptr }
%struct.If_Obj_t_ = type { i32, i32, i32, i32, i32, i32, ptr, ptr, ptr, float, float, float, %union.anon, ptr, %struct.If_Cut_t_ }
%union.anon = type { ptr }
%struct.If_Cut_t_ = type <{ float, float, float, float, i32, i32, i32, i48, [0 x i32] }>

; Function Attrs: nounwind uwtable
define internal i32 @If_ObjIsCo(ptr noundef %0) #0 {
  %2 = alloca ptr, align 8
  store ptr %0, ptr %2, align 8
  %3 = load ptr, ptr %2, align 8
  %4 = load i32, ptr %3, align 8
  %5 = and i32 %4, 15
  %6 = icmp eq i32 %5, 3
  %7 = zext i1 %6 to i32
  ret i32 %7
}

; Function Attrs: nounwind uwtable
define internal i32 @If_ObjIsAnd(ptr noundef %0) #0 {
  %2 = alloca ptr, align 8
  store ptr %0, ptr %2, align 8
  %3 = load ptr, ptr %2, align 8
  %4 = load i32, ptr %3, align 8
  %5 = and i32 %4, 15
  %6 = icmp eq i32 %5, 4
  %7 = zext i1 %6 to i32
  ret i32 %7
}

; Function Attrs: nounwind uwtable
define internal ptr @Vec_PtrEntry(ptr noundef %0, i32 noundef %1) #0 {
  %3 = alloca ptr, align 8
  %4 = alloca i32, align 4
  store ptr %0, ptr %3, align 8
  store i32 %1, ptr %4, align 4
  %5 = load ptr, ptr %3, align 8
  %6 = getelementptr inbounds %struct.Vec_Ptr_t_, ptr %5, i32 0, i32 2
  %7 = load ptr, ptr %6, align 8
  %8 = load i32, ptr %4, align 4
  %9 = sext i32 %8 to i64
  %10 = getelementptr inbounds ptr, ptr %7, i64 %9
  %11 = load ptr, ptr %10, align 8
  ret ptr %11
}

; Function Attrs: nounwind uwtable
define internal i32 @Vec_PtrSize(ptr noundef %0) #0 {
  %2 = alloca ptr, align 8
  store ptr %0, ptr %2, align 8
  %3 = load ptr, ptr %2, align 8
  %4 = getelementptr inbounds %struct.Vec_Ptr_t_, ptr %3, i32 0, i32 1
  %5 = load i32, ptr %4, align 4
  ret i32 %5
}

; Function Attrs: nounwind uwtable
define void @If_ManResetOriginalRefs(ptr noundef %0) #0 {
  %2 = alloca ptr, align 8
  %3 = alloca ptr, align 8
  %4 = alloca i32, align 4
  store ptr %0, ptr %2, align 8
  store i32 0, ptr %4, align 4
  br label %5

5:                                                ; preds = %23, %1
  %6 = load i32, ptr %4, align 4
  %7 = load ptr, ptr %2, align 8
  %8 = getelementptr inbounds %struct.If_Man_t_, ptr %7, i32 0, i32 5
  %9 = load ptr, ptr %8, align 8
  %10 = call i32 @Vec_PtrSize(ptr noundef %9)
  %11 = icmp slt i32 %6, %10
  br i1 %11, label %12, label %18

12:                                               ; preds = %5
  %13 = load ptr, ptr %2, align 8
  %14 = getelementptr inbounds %struct.If_Man_t_, ptr %13, i32 0, i32 5
  %15 = load ptr, ptr %14, align 8
  %16 = load i32, ptr %4, align 4
  %17 = call ptr @Vec_PtrEntry(ptr noundef %15, i32 noundef %16)
  store ptr %17, ptr %3, align 8
  br label %18

18:                                               ; preds = %12, %5
  %19 = phi i1 [ false, %5 ], [ true, %12 ]
  br i1 %19, label %20, label %26

20:                                               ; preds = %18
  %21 = load ptr, ptr %3, align 8
  %22 = getelementptr inbounds %struct.If_Obj_t_, ptr %21, i32 0, i32 3
  store i32 0, ptr %22, align 4
  br label %23

23:                                               ; preds = %20
  %24 = load i32, ptr %4, align 4
  %25 = add nsw i32 %24, 1
  store i32 %25, ptr %4, align 4
  br label %5, !llvm.loop !8

26:                                               ; preds = %18
  store i32 0, ptr %4, align 4
  br label %27

27:                                               ; preds = %72, %26
  %28 = load i32, ptr %4, align 4
  %29 = load ptr, ptr %2, align 8
  %30 = getelementptr inbounds %struct.If_Man_t_, ptr %29, i32 0, i32 5
  %31 = load ptr, ptr %30, align 8
  %32 = call i32 @Vec_PtrSize(ptr noundef %31)
  %33 = icmp slt i32 %28, %32
  br i1 %33, label %34, label %40

34:                                               ; preds = %27
  %35 = load ptr, ptr %2, align 8
  %36 = getelementptr inbounds %struct.If_Man_t_, ptr %35, i32 0, i32 5
  %37 = load ptr, ptr %36, align 8
  %38 = load i32, ptr %4, align 4
  %39 = call ptr @Vec_PtrEntry(ptr noundef %37, i32 noundef %38)
  store ptr %39, ptr %3, align 8
  br label %40

40:                                               ; preds = %34, %27
  %41 = phi i1 [ false, %27 ], [ true, %34 ]
  br i1 %41, label %42, label %75

42:                                               ; preds = %40
  %43 = load ptr, ptr %3, align 8
  %44 = call i32 @If_ObjIsAnd(ptr noundef %43)
  %45 = icmp ne i32 %44, 0
  br i1 %45, label %46, label %59

46:                                               ; preds = %42
  %47 = load ptr, ptr %3, align 8
  %48 = getelementptr inbounds %struct.If_Obj_t_, ptr %47, i32 0, i32 6
  %49 = load ptr, ptr %48, align 8
  %50 = getelementptr inbounds %struct.If_Obj_t_, ptr %49, i32 0, i32 3
  %51 = load i32, ptr %50, align 4
  %52 = add nsw i32 %51, 1
  store i32 %52, ptr %50, align 4
  %53 = load ptr, ptr %3, align 8
  %54 = getelementptr inbounds %struct.If_Obj_t_, ptr %53, i32 0, i32 7
  %55 = load ptr, ptr %54, align 8
  %56 = getelementptr inbounds %struct.If_Obj_t_, ptr %55, i32 0, i32 3
  %57 = load i32, ptr %56, align 4
  %58 = add nsw i32 %57, 1
  store i32 %58, ptr %56, align 4
  br label %71

59:                                               ; preds = %42
  %60 = load ptr, ptr %3, align 8
  %61 = call i32 @If_ObjIsCo(ptr noundef %60)
  %62 = icmp ne i32 %61, 0
  br i1 %62, label %63, label %70

63:                                               ; preds = %59
  %64 = load ptr, ptr %3, align 8
  %65 = getelementptr inbounds %struct.If_Obj_t_, ptr %64, i32 0, i32 6
  %66 = load ptr, ptr %65, align 8
  %67 = getelementptr inbounds %struct.If_Obj_t_, ptr %66, i32 0, i32 3
  %68 = load i32, ptr %67, align 4
  %69 = add nsw i32 %68, 1
  store i32 %69, ptr %67, align 4
  br label %70

70:                                               ; preds = %63, %59
  br label %71

71:                                               ; preds = %70, %46
  br label %72

72:                                               ; preds = %71
  %73 = load i32, ptr %4, align 4
  %74 = add nsw i32 %73, 1
  store i32 %74, ptr %4, align 4
  br label %27, !llvm.loop !9

75:                                               ; preds = %40
  ret void
}