; Function Attrs: nofree norecurse nosync nounwind memory(readwrite, inaccessiblemem: none) uwtable
define void @If_ManResetOriginalRefs(ptr noundef readonly captures(none) %0) local_unnamed_addr #0 {
  %2 = getelementptr inbounds nuw i8, ptr %0, i64 40
  %3 = load ptr, ptr %2, align 8
  %4 = getelementptr i8, ptr %3, i64 4
  %.val1824 = load i32, ptr %4, align 4
  %5 = icmp sgt i32 %.val1824, 0
  br i1 %5, label %.lr.ph, label %.critedge2

.critedge.preheader:                              ; preds = %.lr.ph
  %6 = icmp sgt i32 %.val18, 0
  br i1 %6, label %.lr.ph28, label %.critedge2

.lr.ph:                                           ; preds = %1, %.lr.ph
  %indvars.iv = phi i64 [ %indvars.iv.next, %.lr.ph ], [ 0, %1 ]
  %7 = phi ptr [ %12, %.lr.ph ], [ %3, %1 ]
  %8 = getelementptr i8, ptr %7, i64 8
  %.val20 = load ptr, ptr %8, align 8
  %9 = getelementptr inbounds nuw ptr, ptr %.val20, i64 %indvars.iv
  %10 = load ptr, ptr %9, align 8
  %11 = getelementptr inbounds nuw i8, ptr %10, i64 12
  store i32 0, ptr %11, align 4
  %indvars.iv.next = add nuw nsw i64 %indvars.iv, 1
  %12 = load ptr, ptr %2, align 8
  %13 = getelementptr i8, ptr %12, i64 4
  %.val18 = load i32, ptr %13, align 4
  %14 = sext i32 %.val18 to i64
  %15 = icmp slt i64 %indvars.iv.next, %14
  br i1 %15, label %.lr.ph, label %.critedge.preheader, !llvm.loop !8

.lr.ph28:                                         ; preds = %.critedge.preheader, %.critedge
  %indvars.iv30 = phi i64 [ %indvars.iv.next31, %.critedge ], [ 0, %.critedge.preheader ]
  %16 = phi ptr [ %32, %.critedge ], [ %12, %.critedge.preheader ]
  %17 = getelementptr i8, ptr %16, i64 8
  %.val19 = load ptr, ptr %17, align 8
  %18 = getelementptr inbounds nuw ptr, ptr %.val19, i64 %indvars.iv30
  %19 = load ptr, ptr %18, align 8
  %.val21 = load i32, ptr %19, align 8
  %20 = and i32 %.val21, 15
  switch i32 %20, label %.critedge [
    i32 4, label %21
    i32 3, label %.critedge.sink.split
  ]

21:                                               ; preds = %.lr.ph28
  %22 = getelementptr inbounds nuw i8, ptr %19, i64 24
  %23 = load ptr, ptr %22, align 8
  %24 = getelementptr inbounds nuw i8, ptr %23, i64 12
  %25 = load i32, ptr %24, align 4
  %26 = add nsw i32 %25, 1
  store i32 %26, ptr %24, align 4
  br label %.critedge.sink.split

.critedge.sink.split:                             ; preds = %.lr.ph28, %21
  %.sink38 = phi i64 [ 32, %21 ], [ 24, %.lr.ph28 ]
  %27 = getelementptr inbounds nuw i8, ptr %19, i64 %.sink38
  %28 = load ptr, ptr %27, align 8
  %29 = getelementptr inbounds nuw i8, ptr %28, i64 12
  %30 = load i32, ptr %29, align 4
  %31 = add nsw i32 %30, 1
  store i32 %31, ptr %29, align 4
  br label %.critedge

.critedge:                                        ; preds = %.critedge.sink.split, %.lr.ph28
  %indvars.iv.next31 = add nuw nsw i64 %indvars.iv30, 1
  %32 = load ptr, ptr %2, align 8
  %33 = getelementptr i8, ptr %32, i64 4
  %.val = load i32, ptr %33, align 4
  %34 = sext i32 %.val to i64
  %35 = icmp slt i64 %indvars.iv.next31, %34
  br i1 %35, label %.lr.ph28, label %.critedge2, !llvm.loop !9

.critedge2:                                       ; preds = %.critedge, %1, %.critedge.preheader
  ret void
}